target datalayout = "e-m:e-p270:32:32-p271:32:32-p272:64:64-i64:64-i128:128-f80:128-n8:16:32:64-S128"
target triple = "x86_64-unknown-linux-gnu"

%"class.QuantLib::AbcdMathFunction" = type { double, double, double, double, %"class.std::vector", %"class.std::vector", double, double, double, double, double, double, double }
%"class.std::vector" = type { %"struct.std::_Vector_base" }
%"struct.std::_Vector_base" = type { %"struct.std::_Vector_base<double, std::allocator<double>>::_Vector_impl" }
%"struct.std::_Vector_base<double, std::allocator<double>>::_Vector_impl" = type { %"struct.std::_Vector_base<double, std::allocator<double>>::_Vector_impl_data" }
%"struct.std::_Vector_base<double, std::allocator<double>>::_Vector_impl_data" = type { ptr, ptr, ptr }

; Function Attrs: inlinehint mustprogress nounwind uwtable
define linkonce_odr noundef double @_ZNK8QuantLib16AbcdMathFunction9primitiveEd(ptr noundef nonnull align 8 dereferenceable(136) %this, double noundef %t) #5 comdat align 2 {
entry:
  %this.addr = alloca ptr, align 8
  %t.addr = alloca double, align 8
  store ptr %this, ptr %this.addr, align 8, !tbaa !9
  store double %t, ptr %t.addr, align 8, !tbaa !3
  %this1 = load ptr, ptr %this.addr, align 8
  %0 = load double, ptr %t.addr, align 8, !tbaa !3
  %cmp = fcmp olt double %0, 0.000000e+00
  br i1 %cmp, label %cond.true, label %cond.false

cond.true:                                        ; preds = %entry
  br label %cond.end

cond.false:                                       ; preds = %entry
  %pa_ = getelementptr inbounds nuw %"class.QuantLib::AbcdMathFunction", ptr %this1, i32 0, i32 8
  %1 = load double, ptr %pa_, align 8, !tbaa !24
  %pb_ = getelementptr inbounds nuw %"class.QuantLib::AbcdMathFunction", ptr %this1, i32 0, i32 9
  %2 = load double, ptr %pb_, align 8, !tbaa !25
  %3 = load double, ptr %t.addr, align 8, !tbaa !3
  %4 = call double @llvm.fmuladd.f64(double %2, double %3, double %1)
  %c_ = getelementptr inbounds nuw %"class.QuantLib::AbcdMathFunction", ptr %this1, i32 0, i32 2
  %5 = load double, ptr %c_, align 8, !tbaa !20
  %fneg = fneg double %5
  %6 = load double, ptr %t.addr, align 8, !tbaa !3
  %mul = fmul double %fneg, %6
  %call = call double @exp(double noundef %mul) #15, !tbaa !7
  %d_ = getelementptr inbounds nuw %"class.QuantLib::AbcdMathFunction", ptr %this1, i32 0, i32 3
  %7 = load double, ptr %d_, align 8, !tbaa !21
  %8 = load double, ptr %t.addr, align 8, !tbaa !3
  %mul3 = fmul double %7, %8
  %9 = call double @llvm.fmuladd.f64(double %4, double %call, double %mul3)
  %K_ = getelementptr inbounds nuw %"class.QuantLib::AbcdMathFunction", ptr %this1, i32 0, i32 10
  %10 = load double, ptr %K_, align 8, !tbaa !26
  %add = fadd double %9, %10
  br label %cond.end

cond.end:                                         ; preds = %cond.false, %cond.true
  %cond = phi double [ 0.000000e+00, %cond.true ], [ %add, %cond.false ]
  ret double %cond
}

; Function Attrs: mustprogress uwtable
define noundef double @_ZNK8QuantLib16AbcdMathFunction16definiteIntegralEdd(ptr noundef nonnull align 8 dereferenceable(136) %this, double noundef %t1, double noundef %t2) #0 align 2 {
entry:
  %this.addr = alloca ptr, align 8
  %t1.addr = alloca double, align 8
  %t2.addr = alloca double, align 8
  store ptr %this, ptr %this.addr, align 8, !tbaa !9
  store double %t1, ptr %t1.addr, align 8, !tbaa !3
  store double %t2, ptr %t2.addr, align 8, !tbaa !3
  %this1 = load ptr, ptr %this.addr, align 8
  %0 = load double, ptr %t2.addr, align 8, !tbaa !3
  %call = call noundef double @_ZNK8QuantLib16AbcdMathFunction9primitiveEd(ptr noundef nonnull align 8 dereferenceable(136) %this1, double noundef %0)
  %1 = load double, ptr %t1.addr, align 8, !tbaa !3
  %call2 = call noundef double @_ZNK8QuantLib16AbcdMathFunction9primitiveEd(ptr noundef nonnull align 8 dereferenceable(136) %this1, double noundef %1)
  %sub = fsub double %call, %call2
  ret double %sub
}