; Function Attrs: mustprogress nofree nounwind willreturn memory(write, argmem: readwrite) uwtable
define noundef double @_ZNK8QuantLib16AbcdMathFunction16definiteIntegralEdd(ptr nocapture noundef nonnull readonly align 8 dereferenceable(136) %this, double noundef %t1, double noundef %t2) local_unnamed_addr #9 align 2 {
entry:
  %cmp.i = fcmp olt double %t2, 0.000000e+00
  br i1 %cmp.i, label %_ZNK8QuantLib16AbcdMathFunction9primitiveEd.exit, label %cond.false.i

cond.false.i:                                     ; preds = %entry
  %pa_.i = getelementptr inbounds nuw i8, ptr %this, i64 96
  %0 = load double, ptr %pa_.i, align 8, !tbaa !34
  %pb_.i = getelementptr inbounds nuw i8, ptr %this, i64 104
  %1 = load double, ptr %pb_.i, align 8, !tbaa !35
  %2 = tail call double @llvm.fmuladd.f64(double %1, double %t2, double %0)
  %c_.i = getelementptr inbounds nuw i8, ptr %this, i64 16
  %3 = load double, ptr %c_.i, align 8, !tbaa !28
  %fneg.i = fneg double %3
  %mul.i = fmul double %t2, %fneg.i
  %call.i = tail call double @exp(double noundef %mul.i) #20, !tbaa !12
  %d_.i = getelementptr inbounds nuw i8, ptr %this, i64 24
  %4 = load double, ptr %d_.i, align 8, !tbaa !29
  %mul3.i = fmul double %t2, %4
  %5 = tail call double @llvm.fmuladd.f64(double %2, double %call.i, double %mul3.i)
  %K_.i = getelementptr inbounds nuw i8, ptr %this, i64 112
  %6 = load double, ptr %K_.i, align 8, !tbaa !36
  %add.i = fadd double %6, %5
  br label %_ZNK8QuantLib16AbcdMathFunction9primitiveEd.exit

_ZNK8QuantLib16AbcdMathFunction9primitiveEd.exit: ; preds = %entry, %cond.false.i
  %cond.i = phi double [ %add.i, %cond.false.i ], [ 0.000000e+00, %entry ]
  %cmp.i1 = fcmp olt double %t1, 0.000000e+00
  br i1 %cmp.i1, label %_ZNK8QuantLib16AbcdMathFunction9primitiveEd.exit14, label %cond.false.i2

cond.false.i2:                                    ; preds = %_ZNK8QuantLib16AbcdMathFunction9primitiveEd.exit
  %pa_.i3 = getelementptr inbounds nuw i8, ptr %this, i64 96
  %7 = load double, ptr %pa_.i3, align 8, !tbaa !34
  %pb_.i4 = getelementptr inbounds nuw i8, ptr %this, i64 104
  %8 = load double, ptr %pb_.i4, align 8, !tbaa !35
  %9 = tail call double @llvm.fmuladd.f64(double %8, double %t1, double %7)
  %c_.i5 = getelementptr inbounds nuw i8, ptr %this, i64 16
  %10 = load double, ptr %c_.i5, align 8, !tbaa !28
  %fneg.i6 = fneg double %10
  %mul.i7 = fmul double %t1, %fneg.i6
  %call.i8 = tail call double @exp(double noundef %mul.i7) #20, !tbaa !12
  %d_.i9 = getelementptr inbounds nuw i8, ptr %this, i64 24
  %11 = load double, ptr %d_.i9, align 8, !tbaa !29
  %mul3.i10 = fmul double %t1, %11
  %12 = tail call double @llvm.fmuladd.f64(double %9, double %call.i8, double %mul3.i10)
  %K_.i11 = getelementptr inbounds nuw i8, ptr %this, i64 112
  %13 = load double, ptr %K_.i11, align 8, !tbaa !36
  %add.i12 = fadd double %13, %12
  br label %_ZNK8QuantLib16AbcdMathFunction9primitiveEd.exit14

_ZNK8QuantLib16AbcdMathFunction9primitiveEd.exit14: ; preds = %_ZNK8QuantLib16AbcdMathFunction9primitiveEd.exit, %cond.false.i2
  %cond.i13 = phi double [ %add.i12, %cond.false.i2 ], [ 0.000000e+00, %_ZNK8QuantLib16AbcdMathFunction9primitiveEd.exit ]
  %sub = fsub double %cond.i, %cond.i13
  ret double %sub
}